target datalayout = "e-m:e-p270:32:32-p271:32:32-p272:64:64-i64:64-i128:128-f80:128-n8:16:32:64-S128"
target triple = "x86_64-pc-linux-gnu"

%union.pthread_cond_t = type { %struct.__pthread_cond_s }
%struct.__pthread_cond_s = type { %union.__atomic_wide_counter, %union.__atomic_wide_counter, [2 x i32], [2 x i32], i32, i32, [2 x i32] }
%union.__atomic_wide_counter = type { i64 }
%union.pthread_mutex_t = type { %struct.__pthread_mutex_s }
%struct.__pthread_mutex_s = type { i32, i32, i32, i32, i32, i16, i16, %struct.__pthread_internal_list }
%struct.__pthread_internal_list = type { ptr, ptr }
%struct.slurm_opt_t = type { ptr, ptr, ptr, ptr, ptr, ptr, ptr, ptr, i32, ptr, ptr, ptr, ptr, i32, i32, ptr, i32, i8, i8, i32, i8, i32, i32, ptr, i8, i32, i32, i64, i32, i32, i32, i32, i32, i32, ptr, i32, ptr, i8, i32, i32, ptr, i32, i32, i32, ptr, ptr, i32, i32, ptr, ptr, ptr, i32, i16, i16, i16, i8, i8, ptr, i8, i16, ptr, ptr, i32, i32, i32, ptr, ptr, ptr, ptr, ptr, ptr, i32, i64, i64, i64, i16, i64, ptr, ptr, ptr, ptr, ptr, ptr, ptr, i8, ptr, ptr, ptr, ptr, i8, i64, ptr, i16, ptr, i32, i32, ptr, ptr, i32, i32, i32, ptr, i32, i32, i32, i32, i32, ptr, i64, i32, i16, i32, ptr, ptr, ptr, ptr, ptr, i16, ptr, ptr, i16, i8, ptr, ptr, ptr, ptr }
%struct.salloc_opt_t = type { i32, i32, i8, i16 }
%struct.slurm_step_id_msg = type { i64, i32, i32, i32 }

@command_pid = dso_local global i32 -1, align 4
@allocation_state = dso_local global i32 0, align 4
@allocation_state_cond = dso_local global %union.pthread_cond_t zeroinitializer, align 8
@allocation_state_lock = dso_local global %union.pthread_mutex_t zeroinitializer, align 8
@opt = external global %struct.slurm_opt_t, align 8
@saopt = external global %struct.salloc_opt_t, align 4
@is_interactive = internal global i32 0, align 4
@is_het_job = internal global i8 0, align 1
@my_job_id = internal global i32 0, align 4
@.str.24 = private unnamed_addr constant [29 x i8] c"%s: pthread_mutex_lock(): %m\00", align 1
@.str.26 = private unnamed_addr constant [39 x i8] c"%s:%d %s: pthread_cond_broadcast(): %m\00", align 1
@.str.27 = private unnamed_addr constant [9 x i8] c"salloc.c\00", align 1
@.str.28 = private unnamed_addr constant [31 x i8] c"%s: pthread_mutex_unlock(): %m\00", align 1
@suspend_flag = internal global i8 0, align 1
@allocation_revoked = internal global i8 0, align 1
@.str.61 = private unnamed_addr constant [58 x i8] c"Ignoring job_complete for job %u because our job ID is %u\00", align 1
@__func__._job_complete_handler = private unnamed_addr constant [22 x i8] c"_job_complete_handler\00", align 1
@last_timeout = internal global i64 0, align 8
@.str.62 = private unnamed_addr constant [72 x i8] c"Job %u has exceeded its time limit and its allocation has been revoked.\00", align 1
@.str.63 = private unnamed_addr constant [36 x i8] c"Job allocation %u has been revoked.\00", align 1
@.str.64 = private unnamed_addr constant [42 x i8] c"Sending signal %d to command \22%s\22, pid %d\00", align 1
@.str.65 = private unnamed_addr constant [17 x i8] c"%ps is finished.\00", align 1

; Function Attrs: nounwind uwtable
define internal void @_forward_signal(i32 noundef %0) #0 {
  %2 = alloca i32, align 4
  store i32 %0, ptr %2, align 4
  %3 = load i32, ptr @command_pid, align 4
  %4 = icmp sgt i32 %3, 0
  br i1 %4, label %5, label %9

5:                                                ; preds = %1
  %6 = load i32, ptr @command_pid, align 4
  %7 = load i32, ptr %2, align 4
  %8 = call i32 @killpg(i32 noundef %6, i32 noundef %7) #9
  br label %9

9:                                                ; preds = %5, %1
  ret void
}

; Function Attrs: nounwind uwtable
define internal void @_job_complete_handler(ptr noundef %0) #0 {
  %2 = alloca ptr, align 8
  %3 = alloca i32, align 4
  %4 = alloca i32, align 4
  %5 = alloca i32, align 4
  %6 = alloca i32, align 4
  %7 = alloca i32, align 4
  store ptr %0, ptr %2, align 8
  %8 = load i8, ptr @is_het_job, align 1, !range !8, !noundef !9
  %9 = trunc i8 %8 to i1
  br i1 %9, label %25, label %10

10:                                               ; preds = %1
  %11 = load i32, ptr @my_job_id, align 4
  %12 = icmp ne i32 %11, 0
  br i1 %12, label %13, label %25

13:                                               ; preds = %10
  %14 = load i32, ptr @my_job_id, align 4
  %15 = load ptr, ptr %2, align 8
  %16 = getelementptr inbounds nuw %struct.slurm_step_id_msg, ptr %15, i32 0, i32 1
  %17 = load i32, ptr %16, align 8
  %18 = icmp ne i32 %14, %17
  br i1 %18, label %19, label %25

19:                                               ; preds = %13
  %20 = load ptr, ptr %2, align 8
  %21 = getelementptr inbounds nuw %struct.slurm_step_id_msg, ptr %20, i32 0, i32 1
  %22 = load i32, ptr %21, align 8
  %23 = load i32, ptr @my_job_id, align 4
  %24 = call i32 (ptr, ...) @error(ptr noundef @.str.61, i32 noundef %22, i32 noundef %23)
  br label %157

25:                                               ; preds = %13, %10, %1
  %26 = load ptr, ptr %2, align 8
  %27 = getelementptr inbounds nuw %struct.slurm_step_id_msg, ptr %26, i32 0, i32 3
  %28 = load i32, ptr %27, align 8
  %29 = icmp eq i32 %28, -2
  br i1 %29, label %30, label %147

30:                                               ; preds = %25
  br label %31

31:                                               ; preds = %30
  call void @llvm.lifetime.start.p0(i64 4, ptr %3) #9
  %32 = call i32 @pthread_mutex_lock(ptr noundef @allocation_state_lock) #9
  store i32 %32, ptr %3, align 4
  %33 = load i32, ptr %3, align 4
  %34 = icmp ne i32 %33, 0
  br i1 %34, label %35, label %38

35:                                               ; preds = %31
  %36 = load i32, ptr %3, align 4
  %37 = call ptr @__errno_location() #12
  store i32 %36, ptr %37, align 4
  call void (ptr, ...) @fatal_abort(ptr noundef @.str.24, ptr noundef @__func__._job_complete_handler) #10
  unreachable

38:                                               ; preds = %31
  call void @llvm.lifetime.end.p0(i64 4, ptr %3) #9
  br label %39

39:                                               ; preds = %38
  %40 = load i32, ptr @allocation_state, align 4
  %41 = icmp ne i32 %40, 2
  br i1 %41, label %42, label %74

42:                                               ; preds = %39
  %43 = load i64, ptr @last_timeout, align 8
  %44 = icmp ne i64 %43, 0
  br i1 %44, label %45, label %61

45:                                               ; preds = %42
  %46 = load i64, ptr @last_timeout, align 8
  %47 = call i64 @time(ptr noundef null) #9
  %48 = icmp slt i64 %46, %47
  br i1 %48, label %49, label %61

49:                                               ; preds = %45
  br label %50

50:                                               ; preds = %49
  br label %51

51:                                               ; preds = %50
  %52 = call i32 @get_log_level()
  %53 = icmp sge i32 %52, 3
  br i1 %53, label %54, label %58

54:                                               ; preds = %51
  %55 = load ptr, ptr %2, align 8
  %56 = getelementptr inbounds nuw %struct.slurm_step_id_msg, ptr %55, i32 0, i32 1
  %57 = load i32, ptr %56, align 8
  call void (i32, ptr, ...) @log_var(i32 noundef 3, ptr noundef @.str.62, i32 noundef %57)
  br label %58

58:                                               ; preds = %54, %51
  br label %59

59:                                               ; preds = %58
  br label %60

60:                                               ; preds = %59
  br label %73

61:                                               ; preds = %45, %42
  br label %62

62:                                               ; preds = %61
  br label %63

63:                                               ; preds = %62
  %64 = call i32 @get_log_level()
  %65 = icmp sge i32 %64, 3
  br i1 %65, label %66, label %70

66:                                               ; preds = %63
  %67 = load ptr, ptr %2, align 8
  %68 = getelementptr inbounds nuw %struct.slurm_step_id_msg, ptr %67, i32 0, i32 1
  %69 = load i32, ptr %68, align 8
  call void (i32, ptr, ...) @log_var(i32 noundef 3, ptr noundef @.str.63, i32 noundef %69)
  br label %70

70:                                               ; preds = %66, %63
  br label %71

71:                                               ; preds = %70
  br label %72

72:                                               ; preds = %71
  store i8 1, ptr @allocation_revoked, align 1
  br label %73

73:                                               ; preds = %72, %60
  br label %74

74:                                               ; preds = %73, %39
  store i32 2, ptr @allocation_state, align 4
  br label %75

75:                                               ; preds = %74
  call void @llvm.lifetime.start.p0(i64 4, ptr %4) #9
  %76 = call i32 @pthread_cond_broadcast(ptr noundef @allocation_state_cond) #9
  store i32 %76, ptr %4, align 4
  %77 = load i32, ptr %4, align 4
  %78 = icmp ne i32 %77, 0
  br i1 %78, label %79, label %83

79:                                               ; preds = %75
  %80 = load i32, ptr %4, align 4
  %81 = call ptr @__errno_location() #12
  store i32 %80, ptr %81, align 4
  %82 = call i32 (ptr, ...) @error(ptr noundef @.str.26, ptr noundef @.str.27, i32 noundef 926, ptr noundef @__func__._job_complete_handler)
  br label %83

83:                                               ; preds = %79, %75
  call void @llvm.lifetime.end.p0(i64 4, ptr %4) #9
  br label %84

84:                                               ; preds = %83
  br label %85

85:                                               ; preds = %84
  call void @llvm.lifetime.start.p0(i64 4, ptr %5) #9
  %86 = call i32 @pthread_mutex_unlock(ptr noundef @allocation_state_lock) #9
  store i32 %86, ptr %5, align 4
  %87 = load i32, ptr %5, align 4
  %88 = icmp ne i32 %87, 0
  br i1 %88, label %89, label %92

89:                                               ; preds = %85
  %90 = load i32, ptr %5, align 4
  %91 = call ptr @__errno_location() #12
  store i32 %90, ptr %91, align 4
  call void (ptr, ...) @fatal_abort(ptr noundef @.str.28, ptr noundef @__func__._job_complete_handler) #10
  unreachable

92:                                               ; preds = %85
  call void @llvm.lifetime.end.p0(i64 4, ptr %5) #9
  br label %93

93:                                               ; preds = %92
  %94 = load i32, ptr @command_pid, align 4
  %95 = icmp sgt i32 %94, -1
  br i1 %95, label %96, label %146

96:                                               ; preds = %93
  %97 = load i32, ptr @command_pid, align 4
  %98 = call i32 @waitpid(i32 noundef %97, ptr noundef null, i32 noundef 1)
  %99 = icmp eq i32 %98, 0
  br i1 %99, label %100, label %146

100:                                              ; preds = %96
  call void @llvm.lifetime.start.p0(i64 4, ptr %6) #9
  store i32 0, ptr %6, align 4
  %101 = load i32, ptr @is_interactive, align 4
  %102 = icmp ne i32 %101, 0
  br i1 %102, label %103, label %116

103:                                              ; preds = %100
  call void @llvm.lifetime.start.p0(i64 4, ptr %7) #9
  %104 = call i32 @tcgetpgrp(i32 noundef 0) #9
  store i32 %104, ptr %7, align 4
  %105 = load i32, ptr %7, align 4
  %106 = load i32, ptr @command_pid, align 4
  %107 = icmp ne i32 %105, %106
  br i1 %107, label %108, label %115

108:                                              ; preds = %103
  %109 = load i32, ptr %7, align 4
  %110 = call i32 @getpgrp() #9
  %111 = icmp ne i32 %109, %110
  br i1 %111, label %112, label %115

112:                                              ; preds = %108
  %113 = load i32, ptr %7, align 4
  %114 = call i32 @killpg(i32 noundef %113, i32 noundef 1) #9
  br label %115

115:                                              ; preds = %112, %108, %103
  call void @llvm.lifetime.end.p0(i64 4, ptr %7) #9
  br label %116

116:                                              ; preds = %115, %100
  %117 = load i32, ptr getelementptr inbounds nuw (%struct.salloc_opt_t, ptr @saopt, i32 0, i32 1), align 4
  %118 = icmp ne i32 %117, 0
  br i1 %118, label %119, label %121

119:                                              ; preds = %116
  %120 = load i32, ptr getelementptr inbounds nuw (%struct.salloc_opt_t, ptr @saopt, i32 0, i32 1), align 4
  store i32 %120, ptr %6, align 4
  br label %121

121:                                              ; preds = %119, %116
  %122 = load i32, ptr %6, align 4
  %123 = icmp ne i32 %122, 0
  br i1 %123, label %124, label %145

124:                                              ; preds = %121
  br label %125

125:                                              ; preds = %124
  br label %126

126:                                              ; preds = %125
  %127 = call i32 @get_log_level()
  %128 = icmp sge i32 %127, 4
  br i1 %128, label %129, label %135

129:                                              ; preds = %126
  %130 = load i32, ptr %6, align 4
  %131 = load ptr, ptr getelementptr inbounds nuw (%struct.slurm_opt_t, ptr @opt, i32 0, i32 9), align 8
  %132 = getelementptr inbounds ptr, ptr %131, i64 0
  %133 = load ptr, ptr %132, align 8
  %134 = load i32, ptr @command_pid, align 4
  call void (i32, ptr, ...) @log_var(i32 noundef 4, ptr noundef @.str.64, i32 noundef %130, ptr noundef %133, i32 noundef %134)
  br label %135

135:                                              ; preds = %129, %126
  br label %136

136:                                              ; preds = %135
  br label %137

137:                                              ; preds = %136
  br label %138

138:                                              ; preds = %137
  br label %139

139:                                              ; preds = %138
  %140 = load i8, ptr @suspend_flag, align 1, !range !8, !noundef !9
  %141 = trunc i8 %140 to i1
  br i1 %141, label %142, label %143

142:                                              ; preds = %139
  call void @_forward_signal(i32 noundef 18)
  br label %143

143:                                              ; preds = %142, %139
  %144 = load i32, ptr %6, align 4
  call void @_forward_signal(i32 noundef %144)
  br label %145

145:                                              ; preds = %143, %121
  call void @llvm.lifetime.end.p0(i64 4, ptr %6) #9
  br label %146

146:                                              ; preds = %145, %96, %93
  br label %157

147:                                              ; preds = %25
  br label %148

148:                                              ; preds = %147
  br label %149

149:                                              ; preds = %148
  %150 = call i32 @get_log_level()
  %151 = icmp sge i32 %150, 4
  br i1 %151, label %152, label %154

152:                                              ; preds = %149
  %153 = load ptr, ptr %2, align 8
  call void (i32, ptr, ...) @log_var(i32 noundef 4, ptr noundef @.str.65, ptr noundef %153)
  br label %154

154:                                              ; preds = %152, %149
  br label %155

155:                                              ; preds = %154
  br label %156

156:                                              ; preds = %155
  br label %157

157:                                              ; preds = %19, %156, %146
  ret void
}