; Function Attrs: nounwind uwtable
define internal void @_job_complete_handler(ptr noundef %0) #0 {
  %.b2728 = load i1, ptr @is_het_job, align 1
  %2 = load i32, ptr @my_job_id, align 4
  %3 = icmp eq i32 %2, 0
  %or.cond.not = select i1 %.b2728, i1 true, i1 %3
  br i1 %or.cond.not, label %9, label %4

4:                                                ; preds = %1
  %5 = getelementptr inbounds nuw i8, ptr %0, i64 8
  %6 = load i32, ptr %5, align 8
  %.not = icmp eq i32 %2, %6
  br i1 %.not, label %9, label %7

7:                                                ; preds = %4
  %8 = tail call i32 (ptr, ...) @error(ptr noundef nonnull @.str.61, i32 noundef %6, i32 noundef %2) #13
  br label %_forward_signal.exit

9:                                                ; preds = %4, %1
  %10 = getelementptr inbounds nuw i8, ptr %0, i64 16
  %11 = load i32, ptr %10, align 8
  %12 = icmp eq i32 %11, -2
  br i1 %12, label %13, label %74

13:                                               ; preds = %9
  %14 = tail call i32 @pthread_mutex_lock(ptr noundef nonnull @allocation_state_lock) #13
  %.not30 = icmp eq i32 %14, 0
  br i1 %.not30, label %17, label %15

15:                                               ; preds = %13
  %16 = tail call ptr @__errno_location() #15
  store i32 %14, ptr %16, align 4
  tail call void (ptr, ...) @fatal_abort(ptr noundef nonnull @.str.24, ptr noundef nonnull @__func__._job_complete_handler) #14
  unreachable

17:                                               ; preds = %13
  %18 = load i32, ptr @allocation_state, align 4
  %.not31 = icmp eq i32 %18, 2
  br i1 %.not31, label %37, label %19

19:                                               ; preds = %17
  %20 = load i64, ptr @last_timeout, align 8
  %.not32 = icmp eq i64 %20, 0
  br i1 %.not32, label %30, label %21

21:                                               ; preds = %19
  %22 = tail call i64 @time(ptr noundef null) #13
  %23 = icmp slt i64 %20, %22
  br i1 %23, label %24, label %30

24:                                               ; preds = %21
  %25 = tail call i32 @get_log_level() #13
  %26 = icmp sgt i32 %25, 2
  br i1 %26, label %27, label %37

27:                                               ; preds = %24
  %28 = getelementptr inbounds nuw i8, ptr %0, i64 8
  %29 = load i32, ptr %28, align 8
  tail call void (i32, ptr, ...) @log_var(i32 noundef 3, ptr noundef nonnull @.str.62, i32 noundef %29) #13
  br label %37

30:                                               ; preds = %21, %19
  %31 = tail call i32 @get_log_level() #13
  %32 = icmp sgt i32 %31, 2
  br i1 %32, label %33, label %36

33:                                               ; preds = %30
  %34 = getelementptr inbounds nuw i8, ptr %0, i64 8
  %35 = load i32, ptr %34, align 8
  tail call void (i32, ptr, ...) @log_var(i32 noundef 3, ptr noundef nonnull @.str.63, i32 noundef %35) #13
  br label %36

36:                                               ; preds = %33, %30
  store i1 true, ptr @allocation_revoked, align 1
  br label %37

37:                                               ; preds = %36, %27, %24, %17
  store i32 2, ptr @allocation_state, align 4
  %38 = tail call i32 @pthread_cond_broadcast(ptr noundef nonnull @allocation_state_cond) #13
  %.not33 = icmp eq i32 %38, 0
  br i1 %.not33, label %42, label %39

39:                                               ; preds = %37
  %40 = tail call ptr @__errno_location() #15
  store i32 %38, ptr %40, align 4
  %41 = tail call i32 (ptr, ...) @error(ptr noundef nonnull @.str.26, ptr noundef nonnull @.str.27, i32 noundef 926, ptr noundef nonnull @__func__._job_complete_handler) #13
  br label %42

42:                                               ; preds = %39, %37
  %43 = tail call i32 @pthread_mutex_unlock(ptr noundef nonnull @allocation_state_lock) #13
  %.not34 = icmp eq i32 %43, 0
  br i1 %.not34, label %46, label %44

44:                                               ; preds = %42
  %45 = tail call ptr @__errno_location() #15
  store i32 %43, ptr %45, align 4
  tail call void (ptr, ...) @fatal_abort(ptr noundef nonnull @.str.28, ptr noundef nonnull @__func__._job_complete_handler) #14
  unreachable

46:                                               ; preds = %42
  %47 = load i32, ptr @command_pid, align 4
  %48 = icmp sgt i32 %47, -1
  br i1 %48, label %49, label %_forward_signal.exit

49:                                               ; preds = %46
  %50 = tail call i32 @waitpid(i32 noundef %47, ptr noundef null, i32 noundef 1) #13
  %51 = icmp eq i32 %50, 0
  br i1 %51, label %52, label %_forward_signal.exit

52:                                               ; preds = %49
  %.b = load i1, ptr @is_interactive, align 4
  br i1 %.b, label %53, label %60

53:                                               ; preds = %52
  %54 = tail call i32 @tcgetpgrp(i32 noundef 0) #13
  %55 = load i32, ptr @command_pid, align 4
  %.not35 = icmp eq i32 %54, %55
  br i1 %.not35, label %60, label %56

56:                                               ; preds = %53
  %57 = tail call i32 @getpgrp() #13
  %.not36 = icmp eq i32 %54, %57
  br i1 %.not36, label %60, label %58

58:                                               ; preds = %56
  %59 = tail call i32 @killpg(i32 noundef %54, i32 noundef 1) #13
  br label %60

60:                                               ; preds = %53, %56, %58, %52
  %61 = load i32, ptr getelementptr inbounds nuw (i8, ptr @saopt, i64 4), align 4
  %.not37 = icmp eq i32 %61, 0
  br i1 %.not37, label %_forward_signal.exit, label %62

62:                                               ; preds = %60
  %63 = tail call i32 @get_log_level() #13
  %64 = icmp sgt i32 %63, 3
  br i1 %64, label %65, label %69

65:                                               ; preds = %62
  %66 = load ptr, ptr getelementptr inbounds nuw (i8, ptr @opt, i64 72), align 8
  %67 = load ptr, ptr %66, align 8
  %68 = load i32, ptr @command_pid, align 4
  tail call void (i32, ptr, ...) @log_var(i32 noundef 4, ptr noundef nonnull @.str.64, i32 noundef %61, ptr noundef %67, i32 noundef %68) #13
  br label %69

69:                                               ; preds = %62, %65
  %70 = load i32, ptr @command_pid, align 4
  %71 = icmp sgt i32 %70, 0
  br i1 %71, label %72, label %_forward_signal.exit

72:                                               ; preds = %69
  %73 = tail call i32 @killpg(i32 noundef %70, i32 noundef %61) #13
  br label %_forward_signal.exit

74:                                               ; preds = %9
  %75 = tail call i32 @get_log_level() #13
  %76 = icmp sgt i32 %75, 3
  br i1 %76, label %77, label %_forward_signal.exit

77:                                               ; preds = %74
  tail call void (i32, ptr, ...) @log_var(i32 noundef 4, ptr noundef nonnull @.str.65, ptr noundef nonnull %0) #13
  br label %_forward_signal.exit

_forward_signal.exit:                             ; preds = %72, %69, %60, %74, %77, %46, %49, %7
  ret void
}